; Function Attrs: mustprogress uwtable
define noundef nonnull align 8 dereferenceable(16) ptr @_ZN2cv4gapi2ov8PyParams14cfgNumRequestsEm(ptr noundef nonnull readonly returned align 8 dereferenceable(16) %0, i64 noundef %1) local_unnamed_addr #3 align 2 personality ptr @__gxx_personality_v0 {
  %3 = alloca %"class.std::logic_error", align 8
  %4 = icmp eq i64 %1, 0
  br i1 %4, label %5, label %_ZN2cv4gapi2ov6ParamsINS0_7GenericEE14cfgNumRequestsEm.exit

5:                                                ; preds = %2
  call void @llvm.lifetime.start.p0(i64 16, ptr nonnull %3) #23
  call void @_ZNSt11logic_errorC1EPKc(ptr noundef nonnull align 8 dereferenceable(16) %3, ptr noundef nonnull @.str.28)
  invoke void @_ZN2cv4util11throw_errorISt11logic_errorEEvOT_(ptr noundef nonnull align 8 dereferenceable(16) %3) #25
          to label %6 unwind label %7

6:                                                ; preds = %5
  unreachable

7:                                                ; preds = %5
  %8 = landingpad { ptr, i32 }
          cleanup
  call void @_ZNSt11logic_errorD1Ev(ptr noundef nonnull align 8 dereferenceable(16) %3) #23
  call void @llvm.lifetime.end.p0(i64 16, ptr nonnull %3) #23
  resume { ptr, i32 } %8

_ZN2cv4gapi2ov6ParamsINS0_7GenericEE14cfgNumRequestsEm.exit: ; preds = %2
  %9 = load ptr, ptr %0, align 8, !tbaa !6
  %10 = getelementptr inbounds nuw i8, ptr %9, i64 760
  store i64 %1, ptr %10, align 8, !tbaa !71
  ret ptr %0
}